; Function Attrs: mustprogress uwtable
define i64 @_ZN2cv6detail12AffineWarper4warpERKNS_11_InputArrayES4_S4_iiRKNS_12_OutputArrayE(ptr noundef nonnull align 8 dereferenceable(168) %0, ptr noundef nonnull align 8 dereferenceable(24) %1, ptr noundef nonnull align 8 dereferenceable(24) %2, ptr noundef nonnull align 8 dereferenceable(24) %3, i32 noundef %4, i32 noundef %5, ptr noundef nonnull align 8 dereferenceable(24) %6) unnamed_addr #3 align 2 personality ptr @__gxx_personality_v0 {
  %8 = alloca %"class.cv::Mat", align 8
  %9 = alloca %"class.cv::Mat", align 8
  %10 = alloca %"class.cv::_InputArray", align 8
  %11 = alloca %"class.cv::_InputArray", align 8
  call void @llvm.lifetime.start.p0(i64 96, ptr nonnull %8) #22
  call void @_ZN2cv3MatC1Ev(ptr noundef nonnull align 8 dereferenceable(96) %8) #22
  call void @llvm.lifetime.start.p0(i64 96, ptr nonnull %9) #22
  call void @_ZN2cv3MatC1Ev(ptr noundef nonnull align 8 dereferenceable(96) %9) #22
  invoke void @_ZN2cv6detail12AffineWarper20getRTfromHomogeneousERKNS_11_InputArrayERNS_3MatES6_(ptr nonnull align 8 poison, ptr noundef nonnull align 8 dereferenceable(24) %3, ptr noundef nonnull align 8 dereferenceable(96) %8, ptr noundef nonnull align 8 dereferenceable(96) %9)
          to label %12 unwind label %21

12:                                               ; preds = %7
  call void @llvm.lifetime.start.p0(i64 24, ptr nonnull %10) #22
  %13 = getelementptr inbounds nuw i8, ptr %10, i64 16
  store i32 0, ptr %13, align 8, !tbaa !203
  %14 = getelementptr inbounds nuw i8, ptr %10, i64 20
  store i32 0, ptr %14, align 4, !tbaa !204
  store i32 16842752, ptr %10, align 8, !tbaa !205
  %15 = getelementptr inbounds nuw i8, ptr %10, i64 8
  store ptr %8, ptr %15, align 8, !tbaa !160
  call void @llvm.lifetime.start.p0(i64 24, ptr nonnull %11) #22
  %16 = getelementptr inbounds nuw i8, ptr %11, i64 16
  store i32 0, ptr %16, align 8, !tbaa !203
  %17 = getelementptr inbounds nuw i8, ptr %11, i64 20
  store i32 0, ptr %17, align 4, !tbaa !204
  store i32 16842752, ptr %11, align 8, !tbaa !205
  %18 = getelementptr inbounds nuw i8, ptr %11, i64 8
  store ptr %9, ptr %18, align 8, !tbaa !160
  %19 = invoke i64 @_ZN2cv6detail11PlaneWarper4warpERKNS_11_InputArrayES4_S4_S4_iiRKNS_12_OutputArrayE(ptr noundef nonnull align 8 dereferenceable(168) %0, ptr noundef nonnull align 8 dereferenceable(24) %1, ptr noundef nonnull align 8 dereferenceable(24) %2, ptr noundef nonnull align 8 dereferenceable(24) %10, ptr noundef nonnull align 8 dereferenceable(24) %11, i32 noundef %4, i32 noundef %5, ptr noundef nonnull align 8 dereferenceable(24) %6)
          to label %20 unwind label %23

20:                                               ; preds = %12
  call void @llvm.lifetime.end.p0(i64 24, ptr nonnull %11) #22
  call void @llvm.lifetime.end.p0(i64 24, ptr nonnull %10) #22
  call void @_ZN2cv3MatD1Ev(ptr noundef nonnull align 8 dereferenceable(96) %9) #22
  call void @llvm.lifetime.end.p0(i64 96, ptr nonnull %9) #22
  call void @_ZN2cv3MatD1Ev(ptr noundef nonnull align 8 dereferenceable(96) %8) #22
  call void @llvm.lifetime.end.p0(i64 96, ptr nonnull %8) #22
  ret i64 %19

21:                                               ; preds = %7
  %22 = landingpad { ptr, i32 }
          cleanup
  br label %25

23:                                               ; preds = %12
  %24 = landingpad { ptr, i32 }
          cleanup
  call void @llvm.lifetime.end.p0(i64 24, ptr nonnull %11) #22
  call void @llvm.lifetime.end.p0(i64 24, ptr nonnull %10) #22
  br label %25

25:                                               ; preds = %23, %21
  %.pn.pn.pn = phi { ptr, i32 } [ %24, %23 ], [ %22, %21 ]
  call void @_ZN2cv3MatD1Ev(ptr noundef nonnull align 8 dereferenceable(96) %9) #22
  call void @llvm.lifetime.end.p0(i64 96, ptr nonnull %9) #22
  call void @_ZN2cv3MatD1Ev(ptr noundef nonnull align 8 dereferenceable(96) %8) #22
  call void @llvm.lifetime.end.p0(i64 96, ptr nonnull %8) #22
  resume { ptr, i32 } %.pn.pn.pn
}